target datalayout = "e-m:e-p270:32:32-p271:32:32-p272:64:64-i64:64-i128:128-f80:128-n8:16:32:64-S128"
target triple = "x86_64-pc-linux-gnu"

; Function Attrs: nounwind uwtable
define ptr @H5_strcasestr(ptr noundef %0, ptr noundef %1) #0 {
  %3 = alloca ptr, align 8
  %4 = alloca ptr, align 8
  %5 = alloca ptr, align 8
  %6 = alloca ptr, align 8
  %7 = alloca ptr, align 8
  %8 = alloca i32, align 4
  %9 = alloca i32, align 4
  %10 = alloca i32, align 4
  %11 = alloca i32, align 4
  %12 = alloca i32, align 4
  store ptr %0, ptr %4, align 8, !tbaa !26
  store ptr %1, ptr %5, align 8, !tbaa !26
  br label %13

13:                                               ; preds = %61, %2
  call void @llvm.lifetime.start.p0(i64 8, ptr %6) #9
  %14 = load ptr, ptr %4, align 8, !tbaa !26
  store ptr %14, ptr %6, align 8, !tbaa !26
  call void @llvm.lifetime.start.p0(i64 8, ptr %7) #9
  %15 = load ptr, ptr %5, align 8, !tbaa !26
  store ptr %15, ptr %7, align 8, !tbaa !26
  br label %16

16:                                               ; preds = %45, %13
  call void @llvm.lifetime.start.p0(i64 4, ptr %8) #9
  %17 = call ptr @__ctype_tolower_loc() #12
  %18 = load ptr, ptr %17, align 8, !tbaa !49
  %19 = load ptr, ptr %6, align 8, !tbaa !26
  %20 = load i8, ptr %19, align 1, !tbaa !29
  %21 = sext i8 %20 to i32
  %22 = sext i32 %21 to i64
  %23 = getelementptr inbounds i32, ptr %18, i64 %22
  %24 = load i32, ptr %23, align 4, !tbaa !3
  store i32 %24, ptr %8, align 4, !tbaa !3
  %25 = load i32, ptr %8, align 4, !tbaa !3
  store i32 %25, ptr %9, align 4, !tbaa !3
  call void @llvm.lifetime.end.p0(i64 4, ptr %8) #9
  %26 = load i32, ptr %9, align 4, !tbaa !3
  call void @llvm.lifetime.start.p0(i64 4, ptr %10) #9
  %27 = call ptr @__ctype_tolower_loc() #12
  %28 = load ptr, ptr %27, align 8, !tbaa !49
  %29 = load ptr, ptr %7, align 8, !tbaa !26
  %30 = load i8, ptr %29, align 1, !tbaa !29
  %31 = sext i8 %30 to i32
  %32 = sext i32 %31 to i64
  %33 = getelementptr inbounds i32, ptr %28, i64 %32
  %34 = load i32, ptr %33, align 4, !tbaa !3
  store i32 %34, ptr %10, align 4, !tbaa !3
  %35 = load i32, ptr %10, align 4, !tbaa !3
  store i32 %35, ptr %11, align 4, !tbaa !3
  call void @llvm.lifetime.end.p0(i64 4, ptr %10) #9
  %36 = load i32, ptr %11, align 4, !tbaa !3
  %37 = icmp eq i32 %26, %36
  br i1 %37, label %38, label %43

38:                                               ; preds = %16
  %39 = load ptr, ptr %7, align 8, !tbaa !26
  %40 = load i8, ptr %39, align 1, !tbaa !29
  %41 = sext i8 %40 to i32
  %42 = icmp ne i32 %41, 0
  br label %43

43:                                               ; preds = %38, %16
  %44 = phi i1 [ false, %16 ], [ %42, %38 ]
  br i1 %44, label %45, label %50

45:                                               ; preds = %43
  %46 = load ptr, ptr %6, align 8, !tbaa !26
  %47 = getelementptr inbounds nuw i8, ptr %46, i32 1
  store ptr %47, ptr %6, align 8, !tbaa !26
  %48 = load ptr, ptr %7, align 8, !tbaa !26
  %49 = getelementptr inbounds nuw i8, ptr %48, i32 1
  store ptr %49, ptr %7, align 8, !tbaa !26
  br label %16, !llvm.loop !51

50:                                               ; preds = %43
  %51 = load ptr, ptr %7, align 8, !tbaa !26
  %52 = load i8, ptr %51, align 1, !tbaa !29
  %53 = sext i8 %52 to i32
  %54 = icmp eq i32 %53, 0
  br i1 %54, label %55, label %57

55:                                               ; preds = %50
  %56 = load ptr, ptr %4, align 8, !tbaa !26
  store ptr %56, ptr %3, align 8
  store i32 1, ptr %12, align 4
  br label %58

57:                                               ; preds = %50
  store i32 0, ptr %12, align 4
  br label %58

58:                                               ; preds = %57, %55
  call void @llvm.lifetime.end.p0(i64 8, ptr %7) #9
  call void @llvm.lifetime.end.p0(i64 8, ptr %6) #9
  %59 = load i32, ptr %12, align 4
  switch i32 %59, label %69 [
    i32 0, label %60
    i32 1, label %67
  ]

60:                                               ; preds = %58
  br label %61

61:                                               ; preds = %60
  %62 = load ptr, ptr %4, align 8, !tbaa !26
  %63 = getelementptr inbounds nuw i8, ptr %62, i32 1
  store ptr %63, ptr %4, align 8, !tbaa !26
  %64 = load i8, ptr %62, align 1, !tbaa !29
  %65 = icmp ne i8 %64, 0
  br i1 %65, label %13, label %66, !llvm.loop !52

66:                                               ; preds = %61
  store ptr null, ptr %3, align 8
  br label %67

67:                                               ; preds = %66, %58
  %68 = load ptr, ptr %3, align 8
  ret ptr %68

69:                                               ; preds = %58
  unreachable
}