; Function Attrs: nofree nosync nounwind memory(read, inaccessiblemem: none) uwtable
define noundef ptr @H5_strcasestr(ptr noundef readonly captures(ret: address, provenance) %0, ptr noundef readonly captures(none) %1) local_unnamed_addr #13 {
  %3 = tail call ptr @__ctype_tolower_loc() #18
  %4 = load ptr, ptr %3, align 8, !tbaa !40
  %5 = load i8, ptr %1, align 1, !tbaa !22
  %.fr = freeze i8 %5
  %6 = sext i8 %.fr to i64
  %7 = getelementptr inbounds i32, ptr %4, i64 %6
  %8 = load i32, ptr %7, align 4, !tbaa !26
  %.not20 = icmp eq i8 %.fr, 0
  br i1 %.not20, label %.split25.us, label %.split

.split:                                           ; preds = %2, %.critedge26
  %.016 = phi ptr [ %24, %.critedge26 ], [ %0, %2 ]
  %9 = load i8, ptr %.016, align 1, !tbaa !22
  %10 = sext i8 %9 to i64
  %11 = getelementptr inbounds i32, ptr %4, i64 %10
  %12 = load i32, ptr %11, align 4, !tbaa !26
  %.not27 = icmp eq i32 %12, %8
  br i1 %.not27, label %.lr.ph, label %.critedge26

.lr.ph:                                           ; preds = %.split, %.lr.ph
  %.01723 = phi ptr [ %13, %.lr.ph ], [ %.016, %.split ]
  %.01822 = phi ptr [ %14, %.lr.ph ], [ %1, %.split ]
  %13 = getelementptr inbounds nuw i8, ptr %.01723, i64 1
  %14 = getelementptr inbounds nuw i8, ptr %.01822, i64 1
  %15 = load i8, ptr %13, align 1, !tbaa !22
  %16 = sext i8 %15 to i64
  %17 = getelementptr inbounds i32, ptr %4, i64 %16
  %18 = load i32, ptr %17, align 4, !tbaa !26
  %19 = load i8, ptr %14, align 1, !tbaa !22
  %20 = sext i8 %19 to i64
  %21 = getelementptr inbounds i32, ptr %4, i64 %20
  %22 = load i32, ptr %21, align 4, !tbaa !26
  %23 = icmp ne i32 %18, %22
  %.not = icmp eq i8 %19, 0
  %or.cond = or i1 %.not, %23
  br i1 %or.cond, label %.critedge, label %.lr.ph, !llvm.loop !42

.critedge:                                        ; preds = %.lr.ph
  br i1 %.not, label %.split25.us, label %.critedge26

.critedge26:                                      ; preds = %.split, %.critedge
  %24 = getelementptr inbounds nuw i8, ptr %.016, i64 1
  %.not19 = icmp eq i8 %9, 0
  br i1 %.not19, label %.split25.us, label %.split, !llvm.loop !43

.split25.us:                                      ; preds = %.critedge26, %.critedge, %2
  %.us-phi = phi ptr [ %0, %2 ], [ %.016, %.critedge ], [ null, %.critedge26 ]
  ret ptr %.us-phi
}